Certificate:
    Data:
        Version: 3 (0x2)
        Serial Number: 1 (0x1)
        Signature Algorithm: sha1WithRSAEncryption
        Issuer: C=HU, ST=Pest, L=Budapest, O=Mobile-RC Test, OU=Test certificate, CN=Mobile-RC Test CA/emailAddress=info@mobilerc.test
        Validity
            Not Before: Jan 10 00:13:09 2013 GMT
            Not After : Jan  8 00:13:09 2023 GMT
        Subject: C=HU, ST=Pest, L=Budapest, O=Mobile-RC Test, OU=Test certificate, CN=bridge/emailAddress=info@mobilerc.test
        Subject Public Key Info:
            Public Key Algorithm: rsaEncryption
            RSA Public Key: (1024 bit)
                Modulus (1024 bit):
                    00:bd:9d:e5:d9:38:35:bf:2f:12:ea:9b:08:cc:c5:
                    93:b3:e5:e6:c0:58:3e:2e:9e:3c:33:a6:9e:14:d6:
                    7a:e4:64:28:ff:99:49:da:a6:04:1c:79:f6:e1:29:
                    fc:5e:2e:36:e7:1c:67:a0:51:5a:b2:c9:f1:a7:8e:
                    2c:3a:c2:77:0f:80:e5:92:d9:db:d9:c5:5f:43:5a:
                    50:70:60:11:a7:f5:31:e8:d6:8f:59:31:1c:83:76:
                    63:24:10:e5:d8:c5:79:fe:e3:03:fa:79:db:a6:85:
                    b2:ab:4c:5b:58:13:68:d1:74:de:50:65:de:ef:18:
                    48:c7:65:0a:de:07:26:8b:a9
                Exponent: 65537 (0x10001)
        X509v3 extensions:
            X509v3 Basic Constraints: 
                CA:FALSE
            Netscape Comment: 
                Easy-RSA Generated Certificate
            X509v3 Subject Key Identifier: 
                3D:43:C6:52:E4:17:33:F3:7F:B7:80:44:78:F0:EC:1A:CC:85:3D:90
            X509v3 Authority Key Identifier: 
                keyid:72:FF:83:DE:CB:8A:1E:50:09:CE:5D:47:CE:FA:72:20:57:2D:36:91
                DirName:/C=HU/ST=Pest/L=Budapest/O=Mobile-RC Test/OU=Test certificate/CN=Mobile-RC Test CA/emailAddress=info@mobilerc.test
                serial:9C:A0:65:67:C3:B1:A1:DC

            X509v3 Extended Key Usage: 
                TLS Web Client Authentication
            X509v3 Key Usage: 
                Digital Signature
    Signature Algorithm: sha1WithRSAEncryption
        17:12:91:17:3d:dd:97:24:16:c6:59:b4:05:23:9a:da:7b:d1:
        96:35:6b:f7:2d:83:0e:42:8a:61:2d:cf:c2:29:2b:44:99:10:
        78:9f:ab:46:a7:cd:fe:fa:fc:87:d2:b3:f8:e8:8d:c1:16:42:
        03:80:a3:34:11:ce:da:5a:c2:1b:75:70:df:76:6a:36:24:b3:
        f5:b5:9e:d7:3e:40:ef:8a:af:b4:c2:94:30:d2:23:69:2b:70:
        7e:4e:f1:4c:e1:5b:c9:a7:55:ce:15:93:35:e6:6d:3a:7a:56:
        73:6c:28:32:b4:b0:f9:6b:ee:f4:95:16:de:06:c0:ff:48:a9:
        2f:16
-----BEGIN CERTIFICATE-----
MIIEDDCCA3WgAwIBAgIBATANBgkqhkiG9w0BAQUFADCBojELMAkGA1UEBhMCSFUx
DTALBgNVBAgTBFBlc3QxETAPBgNVBAcTCEJ1ZGFwZXN0MRcwFQYDVQQKEw5Nb2Jp
bGUtUkMgVGVzdDEZMBcGA1UECxMQVGVzdCBjZXJ0aWZpY2F0ZTEaMBgGA1UEAxMR
TW9iaWxlLVJDIFRlc3QgQ0ExITAfBgkqhkiG9w0BCQEWEmluZm9AbW9iaWxlcmMu
dGVzdDAeFw0xMzAxMTAwMDEzMDlaFw0yMzAxMDgwMDEzMDlaMIGXMQswCQYDVQQG
EwJIVTENMAsGA1UECBMEUGVzdDERMA8GA1UEBxMIQnVkYXBlc3QxFzAVBgNVBAoT
Dk1vYmlsZS1SQyBUZXN0MRkwFwYDVQQLExBUZXN0IGNlcnRpZmljYXRlMQ8wDQYD
VQQDEwZicmlkZ2UxITAfBgkqhkiG9w0BCQEWEmluZm9AbW9iaWxlcmMudGVzdDCB
nzANBgkqhkiG9w0BAQEFAAOBjQAwgYkCgYEAvZ3l2Tg1vy8S6psIzMWTs+XmwFg+
Lp48M6aeFNZ65GQo/5lJ2qYEHHn24Sn8Xi425xxnoFFassnxp44sOsJ3D4Dlktnb
2cVfQ1pQcGARp/Ux6NaPWTEcg3ZjJBDl2MV5/uMD+nnbpoWyq0xbWBNo0XTeUGXe
7xhIx2UK3gcmi6kCAwEAAaOCAVkwggFVMAkGA1UdEwQCMAAwLQYJYIZIAYb4QgEN
BCAWHkVhc3ktUlNBIEdlbmVyYXRlZCBDZXJ0aWZpY2F0ZTAdBgNVHQ4EFgQUPUPG
UuQXM/N/t4BEePDsGsyFPZAwgdcGA1UdIwSBzzCBzIAUcv+D3suKHlAJzl1Hzvpy
IFctNpGhgaikgaUwgaIxCzAJBgNVBAYTAkhVMQ0wCwYDVQQIEwRQZXN0MREwDwYD
VQQHEwhCdWRhcGVzdDEXMBUGA1UEChMOTW9iaWxlLVJDIFRlc3QxGTAXBgNVBAsT
EFRlc3QgY2VydGlmaWNhdGUxGjAYBgNVBAMTEU1vYmlsZS1SQyBUZXN0IENBMSEw
HwYJKoZIhvcNAQkBFhJpbmZvQG1vYmlsZXJjLnRlc3SCCQCcoGVnw7Gh3DATBgNV
HSUEDDAKBggrBgEFBQcDAjALBgNVHQ8EBAMCB4AwDQYJKoZIhvcNAQEFBQADgYEA
FxKRFz3dlyQWxlm0BSOa2nvRljVr9y2DDkKKYS3PwikrRJkQeJ+rRqfN/vr8h9Kz
+OiNwRZCA4CjNBHO2lrCG3Vw33ZqNiSz9bWe1z5A74qvtMKUMNIjaStwfk7xTOFb
yadVzhWTNeZtOnpWc2woMrSw+Wvu9JUW3gbA/0ipLxY=
-----END CERTIFICATE-----
