Certificate:
    Data:
        Version: 3 (0x2)
        Serial Number: 2 (0x2)
        Signature Algorithm: sha1WithRSAEncryption
        Issuer: C=HU, ST=Pest, L=Budapest, O=Mobile-RC Test, OU=Test certificate, CN=Mobile-RC Test CA/emailAddress=info@mobilerc.test
        Validity
            Not Before: Oct  6 06:37:32 2012 GMT
            Not After : Oct  4 06:37:32 2022 GMT
        Subject: C=HU, ST=Pest, L=Budapest, O=Mobile-RC Test, OU=Test certificate, CN=bridge2/emailAddress=info@mobilerc.test
        Subject Public Key Info:
            Public Key Algorithm: rsaEncryption
            RSA Public Key: (1024 bit)
                Modulus (1024 bit):
                    00:fd:49:57:5c:51:24:7e:dc:6e:6e:e7:17:bf:06:
                    bb:d5:3e:7f:ac:02:d3:f5:f3:80:74:bf:de:b2:9f:
                    1b:1e:e2:4c:84:0b:71:fa:e5:2a:c9:7c:64:a8:dd:
                    73:96:c4:f4:64:6d:6d:5d:09:c3:d4:98:0a:11:54:
                    16:f4:e6:e8:54:9f:94:c1:7d:4e:35:75:2a:b1:74:
                    19:2e:31:b3:fe:35:5d:ff:95:39:dd:6d:3f:43:4a:
                    35:fd:90:b6:ad:53:9a:25:bc:5d:85:da:c7:01:af:
                    eb:02:e2:0b:b5:a9:55:14:e0:34:aa:3e:b3:b2:12:
                    82:b4:93:4e:47:2d:ed:af:25
                Exponent: 65537 (0x10001)
        X509v3 extensions:
            X509v3 Basic Constraints: 
                CA:FALSE
            Netscape Comment: 
                Easy-RSA Generated Certificate
            X509v3 Subject Key Identifier: 
                32:77:25:94:60:32:DA:2E:3F:0F:0F:7E:5E:F3:48:94:7E:09:5A:70
            X509v3 Authority Key Identifier: 
                keyid:75:F9:D5:A2:B1:07:01:CE:99:1B:AB:BD:B2:1F:35:7F:37:30:DC:FF
                DirName:/C=HU/ST=Pest/L=Budapest/O=Mobile-RC Test/OU=Test certificate/CN=Mobile-RC Test CA/emailAddress=info@mobilerc.test
                serial:D4:35:3D:43:05:D6:AE:2A

            X509v3 Extended Key Usage: 
                TLS Web Client Authentication
            X509v3 Key Usage: 
                Digital Signature
    Signature Algorithm: sha1WithRSAEncryption
        12:83:5a:68:b0:67:bc:44:e6:74:59:69:c3:51:3b:30:3a:20:
        17:6c:e7:87:7b:f8:39:36:97:35:3b:5c:cf:59:3c:91:4a:75:
        8c:fe:b0:e5:6f:d1:c7:c8:61:6f:35:55:77:df:f0:93:db:38:
        b9:c2:9a:6c:46:ac:d9:03:b2:08:96:b2:db:16:63:53:a8:a9:
        99:19:2f:7e:f2:ac:9f:fe:8c:95:d8:fc:86:43:de:77:bd:8a:
        3f:69:bf:33:b7:cc:6c:ff:2a:b4:5d:20:09:22:3f:60:27:10:
        15:7c:43:7c:51:31:87:fc:99:f9:e1:c3:31:ae:65:91:d5:42:
        2f:00
-----BEGIN CERTIFICATE-----
MIIEDTCCA3agAwIBAgIBAjANBgkqhkiG9w0BAQUFADCBojELMAkGA1UEBhMCSFUx
DTALBgNVBAgTBFBlc3QxETAPBgNVBAcTCEJ1ZGFwZXN0MRcwFQYDVQQKEw5Nb2Jp
bGUtUkMgVGVzdDEZMBcGA1UECxMQVGVzdCBjZXJ0aWZpY2F0ZTEaMBgGA1UEAxMR
TW9iaWxlLVJDIFRlc3QgQ0ExITAfBgkqhkiG9w0BCQEWEmluZm9AbW9iaWxlcmMu
dGVzdDAeFw0xMjEwMDYwNjM3MzJaFw0yMjEwMDQwNjM3MzJaMIGYMQswCQYDVQQG
EwJIVTENMAsGA1UECBMEUGVzdDERMA8GA1UEBxMIQnVkYXBlc3QxFzAVBgNVBAoT
Dk1vYmlsZS1SQyBUZXN0MRkwFwYDVQQLExBUZXN0IGNlcnRpZmljYXRlMRAwDgYD
VQQDEwdicmlkZ2UyMSEwHwYJKoZIhvcNAQkBFhJpbmZvQG1vYmlsZXJjLnRlc3Qw
gZ8wDQYJKoZIhvcNAQEBBQADgY0AMIGJAoGBAP1JV1xRJH7cbm7nF78Gu9U+f6wC
0/XzgHS/3rKfGx7iTIQLcfrlKsl8ZKjdc5bE9GRtbV0Jw9SYChFUFvTm6FSflMF9
TjV1KrF0GS4xs/41Xf+VOd1tP0NKNf2Qtq1TmiW8XYXaxwGv6wLiC7WpVRTgNKo+
s7ISgrSTTkct7a8lAgMBAAGjggFZMIIBVTAJBgNVHRMEAjAAMC0GCWCGSAGG+EIB
DQQgFh5FYXN5LVJTQSBHZW5lcmF0ZWQgQ2VydGlmaWNhdGUwHQYDVR0OBBYEFDJ3
JZRgMtouPw8Pfl7zSJR+CVpwMIHXBgNVHSMEgc8wgcyAFHX51aKxBwHOmRurvbIf
NX83MNz/oYGopIGlMIGiMQswCQYDVQQGEwJIVTENMAsGA1UECBMEUGVzdDERMA8G
A1UEBxMIQnVkYXBlc3QxFzAVBgNVBAoTDk1vYmlsZS1SQyBUZXN0MRkwFwYDVQQL
ExBUZXN0IGNlcnRpZmljYXRlMRowGAYDVQQDExFNb2JpbGUtUkMgVGVzdCBDQTEh
MB8GCSqGSIb3DQEJARYSaW5mb0Btb2JpbGVyYy50ZXN0ggkA1DU9QwXWriowEwYD
VR0lBAwwCgYIKwYBBQUHAwIwCwYDVR0PBAQDAgeAMA0GCSqGSIb3DQEBBQUAA4GB
ABKDWmiwZ7xE5nRZacNROzA6IBds54d7+Dk2lzU7XM9ZPJFKdYz+sOVv0cfIYW81
VXff8JPbOLnCmmxGrNkDsgiWstsWY1OoqZkZL37yrJ/+jJXY/IZD3ne9ij9pvzO3
zGz/KrRdIAkiP2AnEBV8Q3xRMYf8mfnhwzGuZZHVQi8A
-----END CERTIFICATE-----
