Certificate:
    Data:
        Version: 3 (0x2)
        Serial Number: 2 (0x2)
        Signature Algorithm: sha1WithRSAEncryption
        Issuer: C=HU, ST=Pest, L=Budapest, O=Mobile-RC Test, OU=Test certificate, CN=Mobile-RC Test CA/emailAddress=info@mobilerc.test
        Validity
            Not Before: Jan 10 00:13:30 2013 GMT
            Not After : Jan  8 00:13:30 2023 GMT
        Subject: C=HU, ST=Pest, L=Budapest, O=Mobile-RC Test, OU=Test certificate, CN=controller/emailAddress=info@mobilerc.test
        Subject Public Key Info:
            Public Key Algorithm: rsaEncryption
            RSA Public Key: (1024 bit)
                Modulus (1024 bit):
                    00:d7:88:b6:38:f4:b8:97:23:2d:27:0a:92:49:1d:
                    15:a9:82:af:60:43:e4:77:ab:31:e8:80:0f:14:ff:
                    7b:44:16:69:3c:c6:e3:ad:bd:b7:70:19:a5:1e:7d:
                    84:18:7f:4d:0d:cf:f0:06:87:d2:37:86:61:4e:8b:
                    b1:72:e9:c9:34:50:8d:ad:55:1d:42:0c:b4:b4:83:
                    bb:f4:3f:ec:79:91:94:c4:69:b1:23:7c:28:66:35:
                    8e:03:45:c7:2b:83:d1:83:f9:e5:51:55:be:80:5a:
                    1e:c7:7d:6b:00:88:2e:dc:14:3b:1a:d2:15:13:7f:
                    c4:83:74:0d:45:02:52:24:03
                Exponent: 65537 (0x10001)
        X509v3 extensions:
            X509v3 Basic Constraints: 
                CA:FALSE
            Netscape Comment: 
                Easy-RSA Generated Certificate
            X509v3 Subject Key Identifier: 
                62:AA:5E:66:B6:D1:AA:4C:A3:60:0A:E1:E3:95:0B:87:99:5D:FD:11
            X509v3 Authority Key Identifier: 
                keyid:72:FF:83:DE:CB:8A:1E:50:09:CE:5D:47:CE:FA:72:20:57:2D:36:91
                DirName:/C=HU/ST=Pest/L=Budapest/O=Mobile-RC Test/OU=Test certificate/CN=Mobile-RC Test CA/emailAddress=info@mobilerc.test
                serial:9C:A0:65:67:C3:B1:A1:DC

            X509v3 Extended Key Usage: 
                TLS Web Client Authentication
            X509v3 Key Usage: 
                Digital Signature
    Signature Algorithm: sha1WithRSAEncryption
        68:23:5d:44:35:03:b2:e1:78:31:9d:c7:9c:6e:8d:70:32:de:
        85:73:7f:cd:2c:31:93:aa:a2:c2:65:af:c5:c3:1a:39:cc:eb:
        d9:4e:b1:f8:6e:86:f4:05:f4:3a:74:bb:34:9b:59:2f:fa:59:
        f8:b4:8b:20:3d:ca:33:4c:50:63:51:f9:63:71:29:2f:dd:0e:
        ad:47:b6:fd:12:17:7b:e7:c6:b6:a9:b6:92:40:cf:39:f3:da:
        29:27:86:23:77:f9:31:af:8a:d5:ae:dc:dc:57:23:0b:b2:1c:
        f2:b5:9e:d4:a5:e0:d9:45:85:04:8d:7f:6e:09:a7:52:1e:ed:
        e2:82
-----BEGIN CERTIFICATE-----
MIIEEDCCA3mgAwIBAgIBAjANBgkqhkiG9w0BAQUFADCBojELMAkGA1UEBhMCSFUx
DTALBgNVBAgTBFBlc3QxETAPBgNVBAcTCEJ1ZGFwZXN0MRcwFQYDVQQKEw5Nb2Jp
bGUtUkMgVGVzdDEZMBcGA1UECxMQVGVzdCBjZXJ0aWZpY2F0ZTEaMBgGA1UEAxMR
TW9iaWxlLVJDIFRlc3QgQ0ExITAfBgkqhkiG9w0BCQEWEmluZm9AbW9iaWxlcmMu
dGVzdDAeFw0xMzAxMTAwMDEzMzBaFw0yMzAxMDgwMDEzMzBaMIGbMQswCQYDVQQG
EwJIVTENMAsGA1UECBMEUGVzdDERMA8GA1UEBxMIQnVkYXBlc3QxFzAVBgNVBAoT
Dk1vYmlsZS1SQyBUZXN0MRkwFwYDVQQLExBUZXN0IGNlcnRpZmljYXRlMRMwEQYD
VQQDEwpjb250cm9sbGVyMSEwHwYJKoZIhvcNAQkBFhJpbmZvQG1vYmlsZXJjLnRl
c3QwgZ8wDQYJKoZIhvcNAQEBBQADgY0AMIGJAoGBANeItjj0uJcjLScKkkkdFamC
r2BD5HerMeiADxT/e0QWaTzG4629t3AZpR59hBh/TQ3P8AaH0jeGYU6LsXLpyTRQ
ja1VHUIMtLSDu/Q/7HmRlMRpsSN8KGY1jgNFxyuD0YP55VFVvoBaHsd9awCILtwU
OxrSFRN/xIN0DUUCUiQDAgMBAAGjggFZMIIBVTAJBgNVHRMEAjAAMC0GCWCGSAGG
+EIBDQQgFh5FYXN5LVJTQSBHZW5lcmF0ZWQgQ2VydGlmaWNhdGUwHQYDVR0OBBYE
FGKqXma20apMo2AK4eOVC4eZXf0RMIHXBgNVHSMEgc8wgcyAFHL/g97Lih5QCc5d
R876ciBXLTaRoYGopIGlMIGiMQswCQYDVQQGEwJIVTENMAsGA1UECBMEUGVzdDER
MA8GA1UEBxMIQnVkYXBlc3QxFzAVBgNVBAoTDk1vYmlsZS1SQyBUZXN0MRkwFwYD
VQQLExBUZXN0IGNlcnRpZmljYXRlMRowGAYDVQQDExFNb2JpbGUtUkMgVGVzdCBD
QTEhMB8GCSqGSIb3DQEJARYSaW5mb0Btb2JpbGVyYy50ZXN0ggkAnKBlZ8Oxodww
EwYDVR0lBAwwCgYIKwYBBQUHAwIwCwYDVR0PBAQDAgeAMA0GCSqGSIb3DQEBBQUA
A4GBAGgjXUQ1A7LheDGdx5xujXAy3oVzf80sMZOqosJlr8XDGjnM69lOsfhuhvQF
9Dp0uzSbWS/6Wfi0iyA9yjNMUGNR+WNxKS/dDq1Htv0SF3vnxraptpJAzznz2ikn
hiN3+TGvitWu3NxXIwuyHPK1ntSl4NlFhQSNf24Jp1Ie7eKC
-----END CERTIFICATE-----
