Certificate:
    Data:
        Version: 3 (0x2)
        Serial Number: 3 (0x3)
        Signature Algorithm: sha1WithRSAEncryption
        Issuer: C=HU, ST=Pest, L=Budapest, O=Mobile-RC Test, OU=Test certificate, CN=Mobile-RC Test CA/emailAddress=info@mobilerc.test
        Validity
            Not Before: Oct  6 06:38:01 2012 GMT
            Not After : Oct  4 06:38:01 2022 GMT
        Subject: C=HU, ST=Pest, L=Budapest, O=Mobile-RC Test, OU=Test certificate, CN=controller2/emailAddress=info@mobilerc.test
        Subject Public Key Info:
            Public Key Algorithm: rsaEncryption
            RSA Public Key: (1024 bit)
                Modulus (1024 bit):
                    00:b5:f5:13:fa:1f:90:89:94:5e:d5:98:36:b9:c0:
                    fa:b4:90:1f:21:05:8c:d5:10:9e:ba:3c:fe:19:31:
                    32:f9:e5:c8:ed:e0:a4:82:3e:c1:64:b9:e0:22:c7:
                    70:2d:81:31:49:fe:c9:e7:18:26:6d:67:92:05:71:
                    c7:ee:ae:39:85:66:dc:69:ed:91:ac:fc:fd:0d:57:
                    e0:00:4e:57:14:af:2c:9d:f3:67:6b:c9:a8:12:60:
                    28:fb:9c:62:32:69:4b:c2:b5:f6:66:88:51:d0:7b:
                    cc:b8:69:49:50:0d:0b:01:29:bb:78:0e:28:53:89:
                    0d:7d:8d:89:74:c7:e8:6e:41
                Exponent: 65537 (0x10001)
        X509v3 extensions:
            X509v3 Basic Constraints: 
                CA:FALSE
            Netscape Comment: 
                Easy-RSA Generated Certificate
            X509v3 Subject Key Identifier: 
                F6:9B:BC:F3:65:38:98:21:FF:97:BE:32:0C:B8:E5:0C:3E:0D:C5:16
            X509v3 Authority Key Identifier: 
                keyid:75:F9:D5:A2:B1:07:01:CE:99:1B:AB:BD:B2:1F:35:7F:37:30:DC:FF
                DirName:/C=HU/ST=Pest/L=Budapest/O=Mobile-RC Test/OU=Test certificate/CN=Mobile-RC Test CA/emailAddress=info@mobilerc.test
                serial:D4:35:3D:43:05:D6:AE:2A

            X509v3 Extended Key Usage: 
                TLS Web Client Authentication
            X509v3 Key Usage: 
                Digital Signature
    Signature Algorithm: sha1WithRSAEncryption
        80:6f:e5:74:0a:ce:bb:71:46:d8:bd:ca:ce:65:86:36:19:be:
        53:86:db:02:f1:53:02:3c:55:68:2a:f0:26:29:f3:d2:55:9d:
        53:0f:8c:b6:f4:50:34:0a:9a:5c:64:41:c1:c7:2b:cf:6e:55:
        de:be:cd:99:c9:37:3c:05:f9:81:2a:23:a8:0c:94:a9:49:59:
        af:d8:bd:33:f0:3e:5f:68:98:1c:dc:b9:13:00:9c:be:88:84:
        36:dc:77:47:df:bb:22:bb:14:67:29:8d:0a:9a:ed:ea:50:43:
        6f:38:57:42:ad:d9:55:ad:dc:c0:e5:1f:30:1b:5c:32:a5:91:
        91:f9
-----BEGIN CERTIFICATE-----
MIIEETCCA3qgAwIBAgIBAzANBgkqhkiG9w0BAQUFADCBojELMAkGA1UEBhMCSFUx
DTALBgNVBAgTBFBlc3QxETAPBgNVBAcTCEJ1ZGFwZXN0MRcwFQYDVQQKEw5Nb2Jp
bGUtUkMgVGVzdDEZMBcGA1UECxMQVGVzdCBjZXJ0aWZpY2F0ZTEaMBgGA1UEAxMR
TW9iaWxlLVJDIFRlc3QgQ0ExITAfBgkqhkiG9w0BCQEWEmluZm9AbW9iaWxlcmMu
dGVzdDAeFw0xMjEwMDYwNjM4MDFaFw0yMjEwMDQwNjM4MDFaMIGcMQswCQYDVQQG
EwJIVTENMAsGA1UECBMEUGVzdDERMA8GA1UEBxMIQnVkYXBlc3QxFzAVBgNVBAoT
Dk1vYmlsZS1SQyBUZXN0MRkwFwYDVQQLExBUZXN0IGNlcnRpZmljYXRlMRQwEgYD
VQQDEwtjb250cm9sbGVyMjEhMB8GCSqGSIb3DQEJARYSaW5mb0Btb2JpbGVyYy50
ZXN0MIGfMA0GCSqGSIb3DQEBAQUAA4GNADCBiQKBgQC19RP6H5CJlF7VmDa5wPq0
kB8hBYzVEJ66PP4ZMTL55cjt4KSCPsFkueAix3AtgTFJ/snnGCZtZ5IFccfurjmF
Ztxp7ZGs/P0NV+AATlcUryyd82dryagSYCj7nGIyaUvCtfZmiFHQe8y4aUlQDQsB
Kbt4DihTiQ19jYl0x+huQQIDAQABo4IBWTCCAVUwCQYDVR0TBAIwADAtBglghkgB
hvhCAQ0EIBYeRWFzeS1SU0EgR2VuZXJhdGVkIENlcnRpZmljYXRlMB0GA1UdDgQW
BBT2m7zzZTiYIf+XvjIMuOUMPg3FFjCB1wYDVR0jBIHPMIHMgBR1+dWisQcBzpkb
q72yHzV/NzDc/6GBqKSBpTCBojELMAkGA1UEBhMCSFUxDTALBgNVBAgTBFBlc3Qx
ETAPBgNVBAcTCEJ1ZGFwZXN0MRcwFQYDVQQKEw5Nb2JpbGUtUkMgVGVzdDEZMBcG
A1UECxMQVGVzdCBjZXJ0aWZpY2F0ZTEaMBgGA1UEAxMRTW9iaWxlLVJDIFRlc3Qg
Q0ExITAfBgkqhkiG9w0BCQEWEmluZm9AbW9iaWxlcmMudGVzdIIJANQ1PUMF1q4q
MBMGA1UdJQQMMAoGCCsGAQUFBwMCMAsGA1UdDwQEAwIHgDANBgkqhkiG9w0BAQUF
AAOBgQCAb+V0Cs67cUbYvcrOZYY2Gb5ThtsC8VMCPFVoKvAmKfPSVZ1TD4y29FA0
CppcZEHBxyvPblXevs2ZyTc8BfmBKiOoDJSpSVmv2L0z8D5faJgc3LkTAJy+iIQ2
3HdH37siuxRnKY0Kmu3qUENvOFdCrdlVrdzA5R8wG1wypZGR+Q==
-----END CERTIFICATE-----
